(dp0
S'ant'
p1
(dp2
S'Recall'
p3
(lp4
(lp5
S'KNN'
p6
aF0.81
aF0.776
aF0.81
aF0.741
aF0.713
aF0.828
aF0.75
aF0.819
aF0.724
aF0.791
aF0.828
aF0.741
aF0.776
aF0.776
aF0.748
aF0.871
aF0.793
aF0.767
aF0.81
aF0.722
aF0.741
aF0.845
aF0.75
aF0.793
aF0.757
aa(lp7
S'SVM'
p8
aF0.802
aF0.81
aF0.81
aF0.776
aF0.809
aF0.776
aF0.828
aF0.879
aF0.802
aF0.765
aF0.905
aF0.793
aF0.819
aF0.81
aF0.748
aF0.897
aF0.853
aF0.793
aF0.897
aF0.8
aF0.776
aF0.776
aF0.879
aF0.819
aF0.826
aa(lp9
S'NB'
p10
aF0.845
aF0.793
aF0.776
aF0.879
aF0.87
aF0.767
aF0.828
aF0.905
aF0.853
aF0.87
aF0.81
aF0.793
aF0.871
aF0.914
aF0.783
aF0.897
aF0.879
aF0.793
aF0.845
aF0.791
aF0.862
aF0.741
aF0.81
aF0.862
aF0.774
aa(lp11
S'RF'
p12
aF0.897
aF0.914
aF0.914
aF0.94
aF0.896
aF0.879
aF0.94
aF0.948
aF0.922
aF0.861
aF0.914
aF0.931
aF0.879
aF0.94
aF0.913
aF0.914
aF0.905
aF0.905
aF0.94
aF0.87
aF0.897
aF0.948
aF0.905
aF0.914
aF0.939
aa(lp13
S'LR'
p14
aF0.793
aF0.802
aF0.793
aF0.776
aF0.8
aF0.767
aF0.845
aF0.853
aF0.767
aF0.739
aF0.836
aF0.802
aF0.81
aF0.828
aF0.722
aF0.905
aF0.802
aF0.776
aF0.879
aF0.774
aF0.776
aF0.776
aF0.853
aF0.784
aF0.809
aa(lp15
S'DT'
p16
aF0.845
aF0.905
aF0.862
aF0.802
aF0.913
aF0.862
aF0.784
aF0.897
aF0.905
aF0.809
aF0.879
aF0.836
aF0.897
aF0.914
aF0.861
aF0.931
aF0.888
aF0.897
aF0.862
aF0.913
aF0.888
aF0.888
aF0.836
aF0.828
aF0.87
aasS'Precision'
p17
(lp18
(lp19
g6
aF0.895
aF0.909
aF0.887
aF0.905
aF0.911
aF0.865
aF0.879
aF0.896
aF0.913
aF0.901
aF0.914
aF0.835
aF0.918
aF0.909
aF0.896
aF0.871
aF0.92
aF0.899
aF0.879
aF0.892
aF0.887
aF0.875
aF0.926
aF0.893
aF0.879
aa(lp20
g8
aF0.877
aF0.931
aF0.887
aF0.849
aF0.886
aF0.882
aF0.897
aF0.872
aF0.869
aF0.889
aF0.875
aF0.844
aF0.905
aF0.913
aF0.878
aF0.846
aF0.9
aF0.911
aF0.86
aF0.902
aF0.891
aF0.857
aF0.911
aF0.905
aF0.872
aa(lp21
g10
aF0.891
aF0.911
aF0.882
aF0.843
aF0.885
aF0.873
aF0.923
aF0.882
aF0.832
aF0.893
aF0.904
aF0.836
aF0.918
aF0.883
aF0.909
aF0.825
aF0.879
aF0.939
aF0.867
aF0.892
aF0.87
aF0.851
aF0.949
aF0.87
aF0.856
aa(lp22
g12
aF0.881
aF0.862
aF0.835
aF0.858
aF0.858
aF0.823
aF0.858
aF0.833
aF0.843
aF0.868
aF0.835
aF0.818
aF0.836
aF0.865
aF0.868
aF0.835
aF0.861
aF0.875
aF0.852
aF0.84
aF0.839
aF0.84
aF0.913
aF0.848
aF0.806
aa(lp23
g14
aF0.885
aF0.93
aF0.911
aF0.849
aF0.868
aF0.873
aF0.933
aF0.861
aF0.873
aF0.904
aF0.882
aF0.845
aF0.913
aF0.932
aF0.883
aF0.854
aF0.93
aF0.918
aF0.85
aF0.908
aF0.882
aF0.891
aF0.925
aF0.91
aF0.869
aa(lp24
g16
aF0.86
aF0.833
aF0.826
aF0.83
aF0.84
aF0.813
aF0.867
aF0.813
aF0.847
aF0.802
aF0.836
aF0.829
aF0.825
aF0.841
aF0.853
aF0.837
aF0.844
aF0.867
aF0.833
aF0.808
aF0.844
aF0.817
aF0.858
aF0.814
aF0.826
aasS'F_score'
p25
(lp26
(lp27
g6
aF0.851
aF0.837
aF0.847
aF0.815
aF0.8
aF0.846
aF0.809
aF0.856
aF0.808
aF0.843
aF0.869
aF0.785
aF0.841
aF0.837
aF0.815
aF0.871
aF0.852
aF0.828
aF0.843
aF0.798
aF0.808
aF0.86
aF0.829
aF0.84
aF0.813
aa(lp28
g8
aF0.838
aF0.866
aF0.847
aF0.811
aF0.845
aF0.826
aF0.861
aF0.876
aF0.834
aF0.822
aF0.89
aF0.818
aF0.86
aF0.858
aF0.808
aF0.87
aF0.876
aF0.848
aF0.878
aF0.848
aF0.829
aF0.814
aF0.895
aF0.86
aF0.848
aa(lp29
g10
aF0.867
aF0.848
aF0.826
aF0.861
aF0.877
aF0.817
aF0.873
aF0.894
aF0.843
aF0.881
aF0.855
aF0.814
aF0.894
aF0.898
aF0.841
aF0.86
aF0.879
aF0.86
aF0.856
aF0.839
aF0.866
aF0.793
aF0.874
aF0.866
aF0.813
aa(lp30
g12
aF0.889
aF0.887
aF0.872
aF0.897
aF0.877
aF0.85
aF0.897
aF0.887
aF0.881
aF0.865
aF0.872
aF0.871
aF0.857
aF0.901
aF0.89
aF0.872
aF0.882
aF0.89
aF0.893
aF0.855
aF0.867
aF0.891
aF0.909
aF0.88
aF0.867
aa(lp31
g14
aF0.836
aF0.861
aF0.848
aF0.811
aF0.833
aF0.817
aF0.887
aF0.857
aF0.817
aF0.813
aF0.858
aF0.823
aF0.858
aF0.877
aF0.794
aF0.879
aF0.861
aF0.841
aF0.864
aF0.836
aF0.826
aF0.829
aF0.888
aF0.843
aF0.838
aa(lp32
g16
aF0.852
aF0.868
aF0.844
aF0.816
aF0.875
aF0.837
aF0.824
aF0.852
aF0.875
aF0.805
aF0.857
aF0.833
aF0.86
aF0.876
aF0.857
aF0.882
aF0.866
aF0.881
aF0.847
aF0.857
aF0.866
aF0.851
aF0.847
aF0.821
aF0.847
aasS'Accuracy'
p33
(lp34
(lp35
g6
aF0.78
aF0.765
aF0.772
aF0.738
aF0.723
aF0.767
aF0.725
aF0.785
aF0.732
aF0.77
aF0.807
aF0.685
aF0.772
aF0.765
aF0.736
aF0.8
aF0.785
aF0.752
aF0.765
aF0.716
aF0.727
aF0.785
aF0.758
aF0.765
aF0.73
aa(lp36
g8
aF0.76
aF0.805
aF0.772
aF0.718
aF0.77
aF0.747
aF0.792
aF0.805
aF0.752
aF0.743
aF0.827
aF0.725
aF0.792
aF0.792
aF0.723
aF0.793
aF0.812
aF0.779
aF0.805
aF0.777
aF0.753
aF0.725
aF0.839
aF0.792
aF0.77
aa(lp37
g10
aF0.8
aF0.779
aF0.745
aF0.779
aF0.811
aF0.733
aF0.812
aF0.832
aF0.752
aF0.818
aF0.787
aF0.718
aF0.839
aF0.839
aF0.77
aF0.773
aF0.812
aF0.799
aF0.779
aF0.764
aF0.793
aF0.698
aF0.819
aF0.792
aF0.723
aa(lp38
g12
aF0.827
aF0.819
aF0.792
aF0.832
aF0.804
aF0.76
aF0.832
aF0.812
aF0.805
aF0.791
aF0.793
aF0.785
aF0.772
aF0.839
aF0.824
aF0.793
aF0.812
aF0.826
aF0.826
aF0.77
aF0.787
aF0.819
aF0.859
aF0.805
aF0.777
aa(lp39
g14
aF0.76
aF0.799
aF0.779
aF0.718
aF0.75
aF0.733
aF0.832
aF0.779
aF0.732
aF0.736
aF0.787
aF0.732
aF0.792
aF0.819
aF0.709
aF0.807
aF0.799
aF0.772
aF0.785
aF0.764
aF0.747
aF0.752
aF0.832
aF0.772
aF0.757
aa(lp40
g16
aF0.773
aF0.785
aF0.752
aF0.718
aF0.797
aF0.74
aF0.738
aF0.758
aF0.799
aF0.696
aF0.773
aF0.738
aF0.772
aF0.799
aF0.777
aF0.807
aF0.785
aF0.812
aF0.758
aF0.764
aF0.787
aF0.758
aF0.765
aF0.718
aF0.757
aass.