(dp0
S'synapse'
p1
(dp2
S'Recall'
p3
(lp4
(lp5
S'KNN'
p6
aF0.735
aF0.824
aF0.706
aF0.853
aF0.647
aF0.735
aF0.853
aF0.706
aF0.735
aF0.706
aF0.853
aF0.735
aF0.794
aF0.676
aF0.853
aF0.706
aF0.853
aF0.853
aF0.824
aF0.588
aF0.735
aF0.824
aF0.647
aF0.794
aF0.647
aa(lp7
S'SVM'
p8
aF0.882
aF0.794
aF0.588
aF0.912
aF0.618
aF0.824
aF0.912
aF0.765
aF0.824
aF0.824
aF0.853
aF0.765
aF0.735
aF0.647
aF0.735
aF0.735
aF0.882
aF0.912
aF0.794
aF0.559
aF0.765
aF0.735
aF0.735
aF0.912
aF0.794
aa(lp9
S'NB'
p10
aF0.882
aF0.676
aF0.853
aF0.853
aF0.559
aF0.824
aF0.912
aF0.706
aF0.882
aF0.765
aF0.794
aF0.765
aF0.765
aF0.706
aF0.853
aF0.794
aF0.882
aF0.853
aF0.824
aF0.647
aF0.765
aF0.794
aF0.735
aF0.912
aF0.824
aa(lp11
S'RF'
p12
aF0.971
aF1.0
aF0.941
aF0.971
aF0.706
aF0.882
aF0.882
aF0.824
aF0.912
aF0.824
aF0.882
aF0.853
aF0.853
aF0.824
aF0.941
aF0.941
aF0.941
aF0.971
aF0.941
aF0.735
aF1.0
aF0.853
aF0.794
aF0.912
aF0.941
aa(lp13
S'LR'
p14
aF0.853
aF0.853
aF0.588
aF0.941
aF0.647
aF0.824
aF0.882
aF0.706
aF0.794
aF0.794
aF0.853
aF0.735
aF0.765
aF0.647
aF0.735
aF0.765
aF0.882
aF0.912
aF0.824
aF0.588
aF0.735
aF0.765
aF0.794
aF0.882
aF0.794
aa(lp15
S'DT'
p16
aF0.794
aF0.941
aF0.882
aF0.882
aF0.765
aF0.794
aF0.941
aF0.853
aF0.853
aF0.853
aF0.912
aF0.735
aF0.941
aF0.794
aF0.824
aF0.706
aF0.882
aF0.882
aF0.794
aF0.706
aF0.971
aF0.853
aF0.765
aF0.882
aF0.824
aasS'Precision'
p17
(lp18
(lp19
g6
aF0.833
aF0.824
aF0.828
aF0.763
aF0.786
aF0.806
aF0.806
aF0.923
aF0.735
aF0.75
aF0.744
aF0.758
aF0.844
aF0.821
aF0.806
aF0.727
aF0.784
aF0.879
aF0.848
aF0.769
aF0.962
aF0.8
aF0.815
aF0.794
aF0.815
aa(lp20
g8
aF0.769
aF0.818
aF0.714
aF0.816
aF0.875
aF0.778
aF0.795
aF0.929
aF0.8
aF0.824
aF0.744
aF0.839
aF0.781
aF0.759
aF0.862
aF0.758
aF0.811
aF0.795
aF0.794
aF0.76
aF0.788
aF0.781
aF0.758
aF0.795
aF0.844
aa(lp21
g10
aF0.732
aF0.821
aF0.784
aF0.744
aF0.76
aF0.737
aF0.838
aF0.923
aF0.789
aF0.813
aF0.75
aF0.788
aF0.813
aF0.8
aF0.806
aF0.711
aF0.75
aF0.853
aF0.824
aF0.759
aF0.765
aF0.75
aF0.781
aF0.775
aF0.757
aa(lp22
g12
aF0.786
aF0.756
aF0.762
aF0.717
aF0.8
aF0.75
aF0.714
aF0.848
aF0.756
aF0.757
aF0.714
aF0.829
aF0.725
aF0.737
aF0.8
aF0.727
aF0.8
aF0.733
aF0.78
aF0.735
aF0.81
aF0.784
aF0.75
aF0.705
aF0.821
aa(lp23
g14
aF0.784
aF0.829
aF0.714
aF0.78
aF0.846
aF0.757
aF0.833
aF0.923
aF0.818
aF0.844
aF0.763
aF0.833
aF0.813
aF0.759
aF0.893
aF0.765
aF0.811
aF0.775
aF0.778
aF0.741
aF0.806
aF0.813
aF0.75
aF0.769
aF0.844
aa(lp24
g16
aF0.75
aF0.744
aF0.769
aF0.732
aF0.788
aF0.711
aF0.711
aF0.784
aF0.763
aF0.763
aF0.689
aF0.758
aF0.727
aF0.75
aF0.737
aF0.706
aF0.732
aF0.811
aF0.794
aF0.686
aF0.733
aF0.725
aF0.722
aF0.698
aF0.757
aasS'F_score'
p25
(lp26
(lp27
g6
aF0.781
aF0.824
aF0.762
aF0.806
aF0.71
aF0.769
aF0.829
aF0.8
aF0.735
aF0.727
aF0.795
aF0.746
aF0.818
aF0.742
aF0.829
aF0.716
aF0.817
aF0.866
aF0.836
aF0.667
aF0.833
aF0.812
aF0.721
aF0.794
aF0.721
aa(lp28
g8
aF0.822
aF0.806
aF0.645
aF0.861
aF0.724
aF0.8
aF0.849
aF0.839
aF0.812
aF0.824
aF0.795
aF0.8
aF0.758
aF0.698
aF0.794
aF0.746
aF0.845
aF0.849
aF0.794
aF0.644
aF0.776
aF0.758
aF0.746
aF0.849
aF0.818
aa(lp29
g10
aF0.8
aF0.742
aF0.817
aF0.795
aF0.644
aF0.778
aF0.873
aF0.8
aF0.833
aF0.788
aF0.771
aF0.776
aF0.788
aF0.75
aF0.829
aF0.75
aF0.811
aF0.853
aF0.824
aF0.698
aF0.765
aF0.771
aF0.758
aF0.838
aF0.789
aa(lp30
g12
aF0.868
aF0.861
aF0.842
aF0.825
aF0.75
aF0.811
aF0.789
aF0.836
aF0.827
aF0.789
aF0.789
aF0.841
aF0.784
aF0.778
aF0.865
aF0.821
aF0.865
aF0.835
aF0.853
aF0.735
aF0.895
aF0.817
aF0.771
aF0.795
aF0.877
aa(lp31
g14
aF0.817
aF0.841
aF0.645
aF0.853
aF0.733
aF0.789
aF0.857
aF0.8
aF0.806
aF0.818
aF0.806
aF0.781
aF0.788
aF0.698
aF0.806
aF0.765
aF0.845
aF0.838
aF0.8
aF0.656
aF0.769
aF0.788
aF0.771
aF0.822
aF0.818
aa(lp32
g16
aF0.771
aF0.831
aF0.822
aF0.8
aF0.776
aF0.75
aF0.81
aF0.817
aF0.806
aF0.806
aF0.785
aF0.746
aF0.821
aF0.771
aF0.778
aF0.706
aF0.8
aF0.845
aF0.794
aF0.696
aF0.835
aF0.784
aF0.743
aF0.779
aF0.789
aasS'Accuracy'
p33
(lp34
(lp35
g6
aF0.731
aF0.765
aF0.706
aF0.725
aF0.647
aF0.712
aF0.765
aF0.765
aF0.647
aF0.647
aF0.712
aF0.667
aF0.765
aF0.686
aF0.765
aF0.635
aF0.745
aF0.824
aF0.784
aF0.608
aF0.808
aF0.745
aF0.667
aF0.725
aF0.667
aa(lp36
g8
aF0.75
aF0.745
aF0.569
aF0.804
aF0.686
aF0.731
aF0.784
aF0.804
aF0.745
aF0.765
aF0.712
aF0.745
aF0.686
aF0.627
aF0.745
aF0.673
aF0.784
aF0.784
aF0.725
aF0.588
aF0.712
aF0.686
aF0.667
aF0.784
aF0.765
aa(lp37
g10
aF0.712
aF0.686
aF0.745
aF0.706
aF0.588
aF0.692
aF0.824
aF0.765
aF0.765
aF0.725
aF0.692
aF0.706
aF0.725
aF0.686
aF0.765
aF0.654
aF0.725
aF0.804
aF0.765
aF0.627
aF0.692
aF0.686
aF0.686
aF0.765
aF0.706
aa(lp38
g12
aF0.808
aF0.784
aF0.765
aF0.725
aF0.686
aF0.731
aF0.686
aF0.784
aF0.745
aF0.706
aF0.692
aF0.784
aF0.686
aF0.686
aF0.804
aF0.731
aF0.804
aF0.745
aF0.784
aF0.647
aF0.846
aF0.745
aF0.686
aF0.686
aF0.824
aa(lp39
g14
aF0.75
aF0.784
aF0.569
aF0.784
aF0.686
aF0.712
aF0.804
aF0.765
aF0.745
aF0.765
aF0.731
aF0.725
aF0.725
aF0.627
aF0.765
aF0.692
aF0.784
aF0.765
aF0.725
aF0.588
aF0.712
aF0.725
aF0.686
aF0.745
aF0.765
aa(lp40
g16
aF0.692
aF0.745
aF0.745
aF0.706
aF0.706
aF0.654
aF0.706
aF0.745
aF0.725
aF0.725
aF0.673
aF0.667
aF0.725
aF0.686
aF0.686
aF0.615
aF0.706
aF0.784
aF0.725
aF0.588
aF0.75
aF0.686
aF0.647
aF0.667
aF0.706
aass.