(dp0
S'xerces'
p1
(dp2
S'Recall'
p3
(lp4
(lp5
S'KNN'
p6
aF0.774
aF0.767
aF0.667
aF0.7
aF0.867
aF0.839
aF0.767
aF0.767
aF0.8
aF0.633
aF0.71
aF0.633
aF0.833
aF0.767
aF0.8
aF0.645
aF0.8
aF0.7
aF0.7
aF0.833
aF0.774
aF0.667
aF0.933
aF0.7
aF0.767
aa(lp7
S'SVM'
p8
aF0.903
aF0.767
aF0.867
aF0.833
aF0.8
aF0.903
aF0.833
aF0.9
aF0.933
aF0.767
aF0.806
aF0.8
aF0.833
aF0.867
aF0.9
aF0.742
aF0.9
aF0.867
aF0.9
aF0.933
aF0.806
aF0.7
aF0.967
aF0.833
aF0.867
aa(lp9
S'NB'
p10
aF0.839
aF0.933
aF0.9
aF0.8
aF0.867
aF0.903
aF0.8
aF0.9
aF0.9
aF0.8
aF0.839
aF0.833
aF0.833
aF0.833
aF1.0
aF0.71
aF0.9
aF0.8
aF0.8
aF0.967
aF0.839
aF0.767
aF0.9
aF0.867
aF0.9
aa(lp11
S'RF'
p12
aF0.871
aF0.8
aF0.867
aF0.8
aF0.8
aF0.871
aF0.867
aF0.9
aF0.867
aF0.733
aF0.806
aF0.8
aF0.8
aF0.767
aF0.867
aF0.742
aF0.867
aF0.767
aF0.833
aF0.8
aF0.774
aF0.7
aF0.933
aF0.8
aF0.933
aa(lp13
S'LR'
p14
aF0.903
aF0.867
aF0.867
aF0.833
aF0.8
aF0.935
aF0.9
aF0.9
aF0.933
aF0.733
aF0.871
aF0.8
aF0.8
aF0.9
aF0.9
aF0.774
aF0.9
aF0.9
aF0.867
aF0.967
aF0.742
aF0.7
aF0.967
aF0.9
aF0.9
aa(lp15
S'DT'
p16
aF0.806
aF0.633
aF0.767
aF0.767
aF0.8
aF0.903
aF0.8
aF0.867
aF0.867
aF0.7
aF0.774
aF0.733
aF0.767
aF0.733
aF0.867
aF0.645
aF0.833
aF0.7
aF0.833
aF0.7
aF0.677
aF0.633
aF0.933
aF0.7
aF0.867
aasS'Precision'
p17
(lp18
(lp19
g6
aF0.522
aF0.5
aF0.465
aF0.583
aF0.743
aF0.578
aF0.575
aF0.489
aF0.48
aF0.475
aF0.468
aF0.452
aF0.439
aF0.575
aF0.585
aF0.541
aF0.533
aF0.553
aF0.538
aF0.568
aF0.545
aF0.488
aF0.56
aF0.488
aF0.605
aa(lp20
g8
aF0.651
aF0.676
aF0.667
aF0.714
aF0.8
aF0.7
aF0.781
aF0.73
aF0.609
aF0.697
aF0.641
aF0.686
aF0.532
aF0.531
aF0.675
aF0.793
aF0.711
aF0.605
aF0.574
aF0.651
aF0.641
aF0.75
aF0.63
aF0.625
aF0.605
aa(lp21
g10
aF0.388
aF0.452
aF0.458
aF0.48
aF0.456
aF0.549
aF0.429
aF0.443
aF0.403
aF0.511
aF0.464
aF0.51
aF0.362
aF0.403
aF0.469
aF0.415
aF0.45
aF0.429
aF0.429
aF0.426
aF0.419
aF0.442
aF0.443
aF0.394
aF0.482
aa(lp22
g12
aF0.75
aF0.923
aF0.897
aF0.857
aF0.889
aF0.844
aF0.867
aF0.871
aF0.929
aF0.786
aF0.806
aF0.923
aF0.889
aF0.821
aF0.765
aF0.885
aF0.788
aF0.697
aF0.833
aF0.889
aF0.8
aF0.875
aF0.824
aF0.96
aF0.903
aa(lp23
g14
aF0.571
aF0.619
aF0.619
aF0.658
aF0.75
aF0.674
aF0.675
aF0.551
aF0.622
aF0.611
aF0.643
aF0.6
aF0.545
aF0.563
aF0.587
aF0.649
aF0.659
aF0.6
aF0.565
aF0.617
aF0.605
aF0.724
aF0.63
aF0.628
aF0.6
aa(lp24
g16
aF0.676
aF0.905
aF0.821
aF0.852
aF0.923
aF0.903
aF0.75
aF0.813
aF0.867
aF0.808
aF0.828
aF0.917
aF0.821
aF0.815
aF0.765
aF0.741
aF0.862
aF0.875
aF0.714
aF1.0
aF0.808
aF0.905
aF0.778
aF0.7
aF0.867
aasS'F_score'
p25
(lp26
(lp27
g6
aF0.623
aF0.605
aF0.548
aF0.636
aF0.8
aF0.684
aF0.657
aF0.597
aF0.6
aF0.543
aF0.564
aF0.528
aF0.575
aF0.657
aF0.676
aF0.588
aF0.64
aF0.618
aF0.609
aF0.676
aF0.64
aF0.563
aF0.7
aF0.575
aF0.676
aa(lp28
g8
aF0.757
aF0.719
aF0.754
aF0.769
aF0.8
aF0.789
aF0.806
aF0.806
aF0.737
aF0.73
aF0.714
aF0.738
aF0.649
aF0.658
aF0.771
aF0.767
aF0.794
aF0.712
aF0.701
aF0.767
aF0.714
aF0.724
aF0.763
aF0.714
aF0.712
aa(lp29
g10
aF0.531
aF0.609
aF0.607
aF0.6
aF0.598
aF0.683
aF0.558
aF0.593
aF0.557
aF0.623
aF0.598
aF0.633
aF0.505
aF0.543
aF0.638
aF0.524
aF0.6
aF0.558
aF0.558
aF0.592
aF0.559
aF0.561
aF0.593
aF0.542
aF0.628
aa(lp30
g12
aF0.806
aF0.857
aF0.881
aF0.828
aF0.842
aF0.857
aF0.867
aF0.885
aF0.897
aF0.759
aF0.806
aF0.857
aF0.842
aF0.793
aF0.813
aF0.807
aF0.825
aF0.73
aF0.833
aF0.842
aF0.787
aF0.778
aF0.875
aF0.873
aF0.918
aa(lp31
g14
aF0.7
aF0.722
aF0.722
aF0.735
aF0.774
aF0.784
aF0.771
aF0.684
aF0.747
aF0.667
aF0.74
aF0.686
aF0.649
aF0.692
aF0.711
aF0.706
aF0.761
aF0.72
aF0.684
aF0.753
aF0.667
aF0.712
aF0.763
aF0.74
aF0.72
aa(lp32
g16
aF0.735
aF0.745
aF0.793
aF0.807
aF0.857
aF0.903
aF0.774
aF0.839
aF0.867
aF0.75
aF0.8
aF0.815
aF0.793
aF0.772
aF0.813
aF0.69
aF0.847
aF0.778
aF0.769
aF0.824
aF0.737
aF0.745
aF0.848
aF0.7
aF0.867
aasS'Accuracy'
p33
(lp34
(lp35
g6
aF0.756
aF0.746
aF0.718
aF0.795
aF0.889
aF0.798
aF0.797
aF0.735
aF0.726
aF0.726
aF0.714
aF0.712
aF0.684
aF0.795
aF0.803
aF0.765
aF0.771
aF0.778
aF0.769
aF0.795
aF0.773
aF0.737
aF0.795
aF0.735
aF0.812
aa(lp36
g8
aF0.849
aF0.847
aF0.855
aF0.872
aF0.897
aF0.874
aF0.898
aF0.889
aF0.829
aF0.855
aF0.832
aF0.856
aF0.769
aF0.769
aF0.863
aF0.882
aF0.881
aF0.821
aF0.803
aF0.855
aF0.832
aF0.864
aF0.846
aF0.829
aF0.821
aa(lp37
g10
aF0.613
aF0.695
aF0.701
aF0.726
aF0.701
aF0.782
aF0.678
aF0.684
aF0.632
aF0.752
aF0.706
aF0.754
aF0.581
aF0.641
aF0.709
aF0.664
aF0.695
aF0.675
aF0.675
aF0.658
aF0.655
aF0.695
aF0.684
aF0.624
aF0.726
aa(lp38
g12
aF0.891
aF0.932
aF0.94
aF0.915
aF0.923
aF0.924
aF0.932
aF0.94
aF0.949
aF0.88
aF0.899
aF0.932
aF0.923
aF0.897
aF0.897
aF0.908
aF0.907
aF0.855
aF0.915
aF0.923
aF0.891
aF0.898
aF0.932
aF0.94
aF0.957
aa(lp39
g14
aF0.798
aF0.831
aF0.829
aF0.846
aF0.88
aF0.866
aF0.864
aF0.786
aF0.838
aF0.812
aF0.84
aF0.814
aF0.778
aF0.795
aF0.812
aF0.832
aF0.856
aF0.821
aF0.795
aF0.838
aF0.807
aF0.856
aF0.846
aF0.838
aF0.821
aa(lp40
g16
aF0.849
aF0.89
aF0.897
aF0.906
aF0.932
aF0.95
aF0.881
aF0.915
aF0.932
aF0.88
aF0.899
aF0.915
aF0.897
aF0.889
aF0.897
aF0.849
aF0.924
aF0.897
aF0.872
aF0.923
aF0.874
aF0.89
aF0.915
aF0.846
aF0.932
aass.