(dp0
S'ant'
p1
(dp2
S'False_alarm'
p3
(lp4
(lp5
S'KNN'
p6
aF0.267
aF0.216
aF0.25
aF0.233
aF0.217
aF0.276
aF0.138
aF0.216
aF0.241
aF0.191
aF0.224
aF0.181
aF0.198
aF0.172
aF0.235
aF0.224
aF0.241
aF0.293
aF0.267
aF0.261
aF0.25
aF0.25
aF0.198
aF0.19
aF0.191
aa(lp7
S'SVM'
p8
aF0.207
aF0.198
aF0.164
aF0.259
aF0.157
aF0.164
aF0.121
aF0.302
aF0.181
aF0.165
aF0.164
aF0.241
aF0.216
aF0.207
aF0.148
aF0.138
aF0.198
aF0.121
aF0.224
aF0.217
aF0.164
aF0.155
aF0.147
aF0.086
aF0.165
aa(lp9
S'NB'
p10
aF0.121
aF0.147
aF0.129
aF0.155
aF0.148
aF0.233
aF0.198
aF0.129
aF0.259
aF0.148
aF0.164
aF0.181
aF0.181
aF0.121
aF0.165
aF0.155
aF0.121
aF0.276
aF0.147
aF0.191
aF0.155
aF0.19
aF0.164
aF0.138
aF0.191
aa(lp11
S'RF'
p12
aF0.06
aF0.112
aF0.086
aF0.078
aF0.07
aF0.086
aF0.078
aF0.069
aF0.069
aF0.104
aF0.095
aF0.112
aF0.095
aF0.069
aF0.043
aF0.112
aF0.06
aF0.06
aF0.086
aF0.148
aF0.112
aF0.078
aF0.069
aF0.069
aF0.13
aa(lp13
S'LR'
p14
aF0.155
aF0.164
aF0.19
aF0.121
aF0.235
aF0.181
aF0.172
aF0.207
aF0.198
aF0.235
aF0.155
aF0.181
aF0.224
aF0.224
aF0.191
aF0.198
aF0.233
aF0.19
aF0.181
aF0.191
aF0.224
aF0.207
aF0.181
aF0.233
aF0.174
aa(lp15
S'DT'
p16
aF0.155
aF0.216
aF0.181
aF0.103
aF0.13
aF0.052
aF0.155
aF0.138
aF0.112
aF0.165
aF0.147
aF0.095
aF0.078
aF0.19
aF0.104
aF0.172
aF0.181
aF0.095
aF0.034
aF0.13
aF0.19
aF0.112
aF0.112
aF0.129
aF0.096
aasS'Recall'
p17
(lp18
(lp19
g6
aF0.735
aF0.697
aF0.606
aF0.818
aF0.636
aF0.853
aF0.606
aF0.697
aF0.636
aF0.667
aF0.765
aF0.818
aF0.697
aF0.576
aF0.758
aF0.735
aF0.697
aF0.667
aF0.697
aF0.667
aF0.706
aF0.576
aF0.818
aF0.697
aF0.606
aa(lp20
g8
aF0.706
aF0.606
aF0.667
aF0.758
aF0.636
aF0.588
aF0.667
aF0.636
aF0.667
aF0.697
aF0.735
aF0.515
aF0.515
aF0.606
aF0.667
aF0.676
aF0.788
aF0.606
aF0.606
aF0.606
aF0.588
aF0.788
aF0.727
aF0.545
aF0.758
aa(lp21
g10
aF0.676
aF0.606
aF0.455
aF0.667
aF0.576
aF0.765
aF0.758
aF0.606
aF0.606
aF0.606
aF0.529
aF0.818
aF0.485
aF0.485
aF0.727
aF0.441
aF0.606
aF0.667
aF0.667
aF0.576
aF0.559
aF0.636
aF0.606
aF0.576
aF0.636
aa(lp22
g12
aF0.294
aF0.485
aF0.303
aF0.394
aF0.485
aF0.412
aF0.545
aF0.424
aF0.394
aF0.424
aF0.5
aF0.545
aF0.485
aF0.485
aF0.424
aF0.5
aF0.333
aF0.364
aF0.485
aF0.515
aF0.412
aF0.394
aF0.576
aF0.424
aF0.394
aa(lp23
g14
aF0.647
aF0.576
aF0.697
aF0.667
aF0.758
aF0.735
aF0.667
aF0.727
aF0.545
aF0.667
aF0.588
aF0.576
aF0.788
aF0.545
aF0.788
aF0.676
aF0.758
aF0.636
aF0.636
aF0.697
aF0.735
aF0.636
aF0.606
aF0.606
aF0.606
aa(lp24
g16
aF0.5
aF0.394
aF0.333
aF0.424
aF0.333
aF0.324
aF0.394
aF0.394
aF0.424
aF0.515
aF0.412
aF0.455
aF0.364
aF0.485
aF0.333
aF0.324
aF0.273
aF0.455
aF0.182
aF0.485
aF0.588
aF0.455
aF0.515
aF0.455
aF0.303
aasS'Precision'
p25
(lp26
(lp27
g6
aF0.446
aF0.479
aF0.408
aF0.5
aF0.457
aF0.475
aF0.556
aF0.479
aF0.429
aF0.5
aF0.5
aF0.563
aF0.5
aF0.487
aF0.481
aF0.49
aF0.451
aF0.393
aF0.426
aF0.423
aF0.453
aF0.396
aF0.54
aF0.511
aF0.476
aa(lp28
g8
aF0.5
aF0.465
aF0.537
aF0.455
aF0.538
aF0.513
aF0.611
aF0.375
aF0.512
aF0.548
aF0.568
aF0.378
aF0.405
aF0.455
aF0.564
aF0.59
aF0.531
aF0.588
aF0.435
aF0.444
aF0.513
aF0.591
aF0.585
aF0.643
aF0.568
aa(lp29
g10
aF0.622
aF0.541
aF0.5
aF0.55
aF0.528
aF0.491
aF0.521
aF0.571
aF0.4
aF0.541
aF0.486
aF0.563
aF0.432
aF0.533
aF0.558
aF0.455
aF0.588
aF0.407
aF0.564
aF0.463
aF0.514
aF0.488
aF0.513
aF0.543
aF0.488
aa(lp30
g12
aF0.588
aF0.552
aF0.5
aF0.591
aF0.667
aF0.583
aF0.667
aF0.636
aF0.619
aF0.538
aF0.607
aF0.581
aF0.593
aF0.667
aF0.737
aF0.567
aF0.611
aF0.632
aF0.615
aF0.5
aF0.519
aF0.591
aF0.704
aF0.636
aF0.464
aa(lp31
g14
aF0.55
aF0.5
aF0.511
aF0.611
aF0.481
aF0.543
aF0.524
aF0.5
aF0.439
aF0.449
aF0.526
aF0.475
aF0.5
aF0.409
aF0.542
aF0.5
aF0.481
aF0.488
aF0.5
aF0.511
aF0.49
aF0.467
aF0.488
aF0.426
aF0.5
aa(lp32
g16
aF0.486
aF0.342
aF0.344
aF0.538
aF0.423
aF0.647
aF0.419
aF0.448
aF0.519
aF0.472
aF0.452
aF0.577
aF0.571
aF0.421
aF0.478
aF0.355
aF0.3
aF0.577
aF0.6
aF0.516
aF0.476
aF0.536
aF0.567
aF0.5
aF0.476
aasS'F_score'
p33
(lp34
(lp35
g6
aF0.556
aF0.568
aF0.488
aF0.621
aF0.532
aF0.611
aF0.58
aF0.568
aF0.512
aF0.571
aF0.605
aF0.667
aF0.582
aF0.528
aF0.588
aF0.588
aF0.548
aF0.494
aF0.529
aF0.518
aF0.552
aF0.469
aF0.651
aF0.59
aF0.533
aa(lp36
g8
aF0.585
aF0.526
aF0.595
aF0.568
aF0.583
aF0.548
aF0.638
aF0.472
aF0.579
aF0.613
aF0.641
aF0.436
aF0.453
aF0.519
aF0.611
aF0.63
aF0.634
aF0.597
aF0.506
aF0.513
aF0.548
aF0.675
aF0.649
aF0.59
aF0.649
aa(lp37
g10
aF0.648
aF0.571
aF0.476
aF0.603
aF0.551
aF0.598
aF0.617
aF0.588
aF0.482
aF0.571
aF0.507
aF0.667
aF0.457
aF0.508
aF0.632
aF0.448
aF0.597
aF0.506
aF0.611
aF0.514
aF0.535
aF0.553
aF0.556
aF0.559
aF0.553
aa(lp38
g12
aF0.392
aF0.516
aF0.377
aF0.473
aF0.561
aF0.483
aF0.6
aF0.509
aF0.481
aF0.475
aF0.548
aF0.563
aF0.533
aF0.561
aF0.538
aF0.531
aF0.431
aF0.462
aF0.542
aF0.507
aF0.459
aF0.473
aF0.633
aF0.509
aF0.426
aa(lp39
g14
aF0.595
aF0.535
aF0.59
aF0.638
aF0.588
aF0.625
aF0.587
aF0.593
aF0.486
aF0.537
aF0.556
aF0.521
aF0.612
aF0.468
aF0.642
aF0.575
aF0.588
aF0.553
aF0.56
aF0.59
aF0.588
aF0.538
aF0.541
aF0.5
aF0.548
aa(lp40
g16
aF0.493
aF0.366
aF0.338
aF0.475
aF0.373
aF0.431
aF0.406
aF0.419
aF0.467
aF0.493
aF0.431
aF0.508
aF0.444
aF0.451
aF0.393
aF0.338
aF0.286
aF0.508
aF0.279
aF0.5
aF0.526
aF0.492
aF0.54
aF0.476
aF0.37
aasS'Accuracy'
p41
(lp42
(lp43
g6
aF0.733
aF0.765
aF0.718
aF0.779
aF0.75
aF0.753
aF0.805
aF0.765
aF0.732
aF0.777
aF0.773
aF0.819
aF0.779
aF0.772
aF0.764
aF0.767
aF0.745
aF0.698
aF0.725
aF0.723
aF0.74
aF0.711
aF0.805
aF0.785
aF0.764
aa(lp44
g8
aF0.773
aF0.758
aF0.799
aF0.745
aF0.797
aF0.78
aF0.832
aF0.685
aF0.785
aF0.804
aF0.813
aF0.705
aF0.725
aF0.752
aF0.811
aF0.82
aF0.799
aF0.819
aF0.738
aF0.743
aF0.78
aF0.832
aF0.826
aF0.832
aF0.818
aa(lp45
g10
aF0.833
aF0.799
aF0.779
aF0.805
aF0.791
aF0.767
aF0.792
aF0.812
aF0.711
aF0.797
aF0.767
aF0.819
aF0.745
aF0.792
aF0.811
aF0.753
aF0.819
aF0.711
aF0.812
aF0.757
aF0.78
aF0.772
aF0.785
aF0.799
aF0.77
aa(lp46
g12
aF0.793
aF0.799
aF0.779
aF0.805
aF0.831
aF0.8
aF0.839
aF0.819
aF0.812
aF0.791
aF0.813
aF0.812
aF0.812
aF0.832
aF0.838
aF0.8
aF0.805
aF0.812
aF0.819
aF0.777
aF0.78
aF0.805
aF0.852
aF0.819
aF0.764
aa(lp47
g14
aF0.8
aF0.779
aF0.785
aF0.832
aF0.764
aF0.8
aF0.792
aF0.779
aF0.745
aF0.743
aF0.787
aF0.765
aF0.779
aF0.725
aF0.804
aF0.773
aF0.765
aF0.772
aF0.779
aF0.784
aF0.767
aF0.758
aF0.772
aF0.732
aF0.777
aa(lp48
g16
aF0.767
aF0.698
aF0.711
aF0.792
aF0.75
aF0.807
aF0.745
aF0.758
aF0.785
aF0.764
aF0.753
aF0.805
aF0.799
aF0.738
aF0.77
aF0.713
aF0.698
aF0.805
aF0.792
aF0.784
aF0.76
aF0.792
aF0.805
aF0.779
aF0.77
aass.