(dp0
S''
p1
(dp2
S'Recall'
p3
(lp4
(lp5
S'NB'
p6
aF0.907
aF0.869
aF0.841
aF0.855
aa(lp7
S'SVM'
p8
aF0.783
aF0.82
aF0.786
aF0.824
aasS'Precision'
p9
(lp10
(lp11
g6
aF0.865
aF0.878
aF0.887
aF0.882
aa(lp12
g8
aF0.883
aF0.878
aF0.891
aF0.881
aasS'F_score'
p13
(lp14
(lp15
g6
aF0.886
aF0.873
aF0.864
aF0.868
aa(lp16
g8
aF0.83
aF0.848
aF0.835
aF0.852
aasS'Accuracy'
p17
(lp18
(lp19
g6
aF0.818
aF0.804
aF0.794
aF0.798
aa(lp20
g8
aF0.751
aF0.772
aF0.759
aF0.777
aass.