(dp0
S'data/ant.csv'
p1
(dp2
S'Recall'
p3
(lp4
(lp5
S'NB'
p6
aF0.81
aF0.905
aF0.836
aF0.802
aF0.73
aF0.828
aF0.836
aF0.879
aF0.672
aF0.896
aF0.853
aF0.81
aF0.845
aF0.836
aF0.861
aF0.828
aF0.888
aF0.81
aF0.836
aF0.809
aF0.845
aF0.888
aF0.819
aF0.862
aF0.809
aa(lp7
S'SVM'
p8
aF0.862
aF0.871
aF0.819
aF0.784
aF0.835
aF0.81
aF0.819
aF0.871
aF0.836
aF0.826
aF0.793
aF0.845
aF0.862
aF0.793
aF0.843
aF0.819
aF0.776
aF0.905
aF0.802
aF0.809
aF0.793
aF0.862
aF0.793
aF0.767
aF0.817
aasS'Precision'
p9
(lp10
(lp11
g6
aF0.862
aF0.854
aF0.89
aF0.877
aF0.866
aF0.873
aF0.851
aF0.864
aF0.918
aF0.88
aF0.908
aF0.879
aF0.875
aF0.851
aF0.892
aF0.814
aF0.88
aF0.913
aF0.915
aF0.894
aF0.86
aF0.851
aF0.913
aF0.885
aF0.903
aa(lp12
g8
aF0.87
aF0.871
aF0.905
aF0.883
aF0.906
aF0.895
aF0.88
aF0.902
aF0.89
aF0.888
aF0.902
aF0.907
aF0.877
aF0.876
aF0.882
aF0.826
aF0.909
aF0.921
aF0.886
aF0.912
aF0.876
aF0.885
aF0.929
aF0.89
aF0.855
aasS'F_score'
p13
(lp14
(lp15
g6
aF0.836
aF0.879
aF0.862
aF0.838
aF0.792
aF0.85
aF0.843
aF0.872
aF0.776
aF0.888
aF0.88
aF0.843
aF0.86
aF0.843
aF0.876
aF0.821
aF0.884
aF0.858
aF0.874
aF0.849
aF0.852
aF0.869
aF0.864
aF0.873
aF0.853
aa(lp16
g8
aF0.866
aF0.871
aF0.86
aF0.831
aF0.869
aF0.851
aF0.848
aF0.886
aF0.862
aF0.856
aF0.844
aF0.875
aF0.87
aF0.833
aF0.862
aF0.823
aF0.837
aF0.913
aF0.842
aF0.857
aF0.833
aF0.873
aF0.856
aF0.824
aF0.836
aasS'Accuracy'
p17
(lp18
(lp19
g6
aF0.753
aF0.805
aF0.792
aF0.758
aF0.703
aF0.773
aF0.758
aF0.799
aF0.698
aF0.824
aF0.82
aF0.765
aF0.785
aF0.758
aF0.811
aF0.72
aF0.819
aF0.792
aF0.812
aF0.777
aF0.773
aF0.792
aF0.799
aF0.805
aF0.784
aa(lp20
g8
aF0.793
aF0.799
aF0.792
aF0.752
aF0.804
aF0.78
aF0.772
aF0.826
aF0.792
aF0.784
aF0.773
aF0.812
aF0.799
aF0.752
aF0.791
aF0.727
aF0.765
aF0.866
aF0.765
aF0.791
aF0.753
aF0.805
aF0.792
aF0.745
aF0.75
aass.