(dp0
S'ant'
p1
(dp2
S'False_alarm'
p3
(lp4
(lp5
S'KNN'
p6
aF0.112
aF0.095
aF0.052
aF0.052
aF0.026
aF0.043
aF0.103
aF0.103
aF0.086
aF0.035
aF0.069
aF0.052
aF0.052
aF0.069
aF0.078
aF0.069
aF0.086
aF0.043
aF0.06
aF0.078
aF0.06
aF0.095
aF0.043
aF0.052
aF0.07
aa(lp7
S'SVM'
p8
aF0.034
aF0.052
aF0.017
aF0.086
aF0.017
aF0.026
aF0.052
aF0.034
aF0.06
aF0.043
aF0.017
aF0.034
aF0.078
aF0.017
aF0.035
aF0.017
aF0.043
aF0.052
aF0.052
aF0.035
aF0.052
aF0.026
aF0.078
aF0.017
aF0.026
aa(lp9
S'NB'
p10
aF0.06
aF0.138
aF0.155
aF0.112
aF0.113
aF0.147
aF0.095
aF0.112
aF0.164
aF0.078
aF0.155
aF0.121
aF0.043
aF0.147
aF0.13
aF0.069
aF0.129
aF0.112
aF0.207
aF0.113
aF0.06
aF0.198
aF0.103
aF0.121
aF0.165
aa(lp11
S'RF'
p12
aF0.095
aF0.095
aF0.043
aF0.069
aF0.035
aF0.112
aF0.06
aF0.06
aF0.06
aF0.07
aF0.069
aF0.078
aF0.026
aF0.043
aF0.07
aF0.086
aF0.086
aF0.06
aF0.043
aF0.061
aF0.086
aF0.06
aF0.034
aF0.043
aF0.043
aa(lp13
S'LR'
p14
aF0.069
aF0.052
aF0.069
aF0.034
aF0.052
aF0.069
aF0.069
aF0.06
aF0.043
aF0.052
aF0.078
aF0.017
aF0.043
aF0.052
aF0.078
aF0.069
aF0.086
aF0.078
aF0.026
aF0.043
aF0.026
aF0.043
aF0.069
aF0.06
aF0.061
aa(lp15
S'DT'
p16
aF0.19
aF0.147
aF0.164
aF0.103
aF0.183
aF0.121
aF0.164
aF0.164
aF0.198
aF0.148
aF0.129
aF0.19
aF0.181
aF0.086
aF0.174
aF0.112
aF0.147
aF0.147
aF0.155
aF0.217
aF0.112
aF0.095
aF0.138
aF0.19
aF0.122
aasS'Recall'
p17
(lp18
(lp19
g6
aF0.324
aF0.424
aF0.273
aF0.424
aF0.394
aF0.324
aF0.394
aF0.364
aF0.364
aF0.364
aF0.382
aF0.455
aF0.364
aF0.333
aF0.394
aF0.294
aF0.455
aF0.303
aF0.364
aF0.515
aF0.412
aF0.303
aF0.303
aF0.485
aF0.485
aa(lp20
g8
aF0.324
aF0.242
aF0.242
aF0.394
aF0.424
aF0.5
aF0.394
aF0.182
aF0.242
aF0.303
aF0.324
aF0.394
aF0.394
aF0.333
aF0.303
aF0.441
aF0.242
aF0.364
aF0.364
aF0.455
aF0.353
aF0.394
aF0.303
aF0.364
aF0.394
aa(lp21
g10
aF0.618
aF0.485
aF0.455
aF0.576
aF0.636
aF0.618
aF0.515
aF0.576
aF0.606
aF0.455
aF0.382
aF0.545
aF0.576
aF0.545
aF0.667
aF0.441
aF0.424
aF0.667
aF0.576
aF0.576
aF0.412
aF0.424
aF0.606
aF0.545
aF0.848
aa(lp22
g12
aF0.441
aF0.545
aF0.273
aF0.455
aF0.364
aF0.412
aF0.364
aF0.364
aF0.333
aF0.364
aF0.441
aF0.576
aF0.303
aF0.455
aF0.424
aF0.382
aF0.424
aF0.515
aF0.424
aF0.273
aF0.412
aF0.364
aF0.273
aF0.424
aF0.394
aa(lp23
g14
aF0.412
aF0.485
aF0.333
aF0.333
aF0.333
aF0.382
aF0.364
aF0.424
aF0.364
aF0.394
aF0.353
aF0.303
aF0.424
aF0.485
aF0.424
aF0.353
aF0.424
aF0.273
aF0.515
aF0.424
aF0.382
aF0.424
aF0.364
aF0.333
aF0.485
aa(lp24
g16
aF0.412
aF0.333
aF0.424
aF0.545
aF0.455
aF0.529
aF0.485
aF0.485
aF0.394
aF0.485
aF0.412
aF0.606
aF0.455
aF0.455
aF0.515
aF0.471
aF0.394
aF0.364
aF0.485
aF0.485
aF0.529
aF0.394
aF0.545
aF0.515
aF0.485
aasS'Precision'
p25
(lp26
(lp27
g6
aF0.458
aF0.56
aF0.6
aF0.7
aF0.813
aF0.688
aF0.52
aF0.5
aF0.545
aF0.75
aF0.619
aF0.714
aF0.667
aF0.579
aF0.591
aF0.556
aF0.6
aF0.667
aF0.632
aF0.654
aF0.667
aF0.476
aF0.667
aF0.727
aF0.667
aa(lp28
g8
aF0.733
aF0.571
aF0.8
aF0.565
aF0.875
aF0.85
aF0.684
aF0.6
aF0.533
aF0.667
aF0.846
aF0.765
aF0.591
aF0.846
aF0.714
aF0.882
aF0.615
aF0.667
aF0.667
aF0.789
aF0.667
aF0.813
aF0.526
aF0.857
aF0.813
aa(lp29
g10
aF0.75
aF0.5
aF0.455
aF0.594
aF0.618
aF0.553
aF0.607
aF0.594
aF0.513
aF0.625
aF0.419
aF0.563
aF0.792
aF0.514
aF0.595
aF0.652
aF0.483
aF0.629
aF0.442
aF0.594
aF0.667
aF0.378
aF0.625
aF0.563
aF0.596
aa(lp30
g12
aF0.577
aF0.621
aF0.643
aF0.652
aF0.75
aF0.519
aF0.632
aF0.632
aF0.611
aF0.6
aF0.652
aF0.679
aF0.769
aF0.75
aF0.636
aF0.565
aF0.583
aF0.708
aF0.737
aF0.563
aF0.583
aF0.632
aF0.692
aF0.737
aF0.722
aa(lp31
g14
aF0.636
aF0.727
aF0.579
aF0.733
aF0.647
aF0.619
aF0.6
aF0.667
aF0.706
aF0.684
aF0.571
aF0.833
aF0.737
aF0.727
aF0.609
aF0.6
aF0.583
aF0.5
aF0.85
aF0.737
aF0.813
aF0.737
aF0.6
aF0.611
aF0.696
aa(lp32
g16
aF0.389
aF0.393
aF0.424
aF0.6
aF0.417
aF0.563
aF0.457
aF0.457
aF0.361
aF0.485
aF0.483
aF0.476
aF0.417
aF0.6
aF0.459
aF0.552
aF0.433
aF0.414
aF0.471
aF0.39
aF0.581
aF0.542
aF0.529
aF0.436
aF0.533
aasS'F_score'
p33
(lp34
(lp35
g6
aF0.379
aF0.483
aF0.375
aF0.528
aF0.531
aF0.44
aF0.448
aF0.421
aF0.436
aF0.49
aF0.473
aF0.556
aF0.471
aF0.423
aF0.473
aF0.385
aF0.517
aF0.417
aF0.462
aF0.576
aF0.509
aF0.37
aF0.417
aF0.582
aF0.561
aa(lp36
g8
aF0.449
aF0.34
aF0.372
aF0.464
aF0.571
aF0.63
aF0.5
aF0.279
aF0.333
aF0.417
aF0.468
aF0.52
aF0.473
aF0.478
aF0.426
aF0.588
aF0.348
aF0.471
aF0.471
aF0.577
aF0.462
aF0.531
aF0.385
aF0.511
aF0.531
aa(lp37
g10
aF0.677
aF0.492
aF0.455
aF0.585
aF0.627
aF0.583
aF0.557
aF0.585
aF0.556
aF0.526
aF0.4
aF0.554
aF0.667
aF0.529
aF0.629
aF0.526
aF0.452
aF0.647
aF0.5
aF0.585
aF0.509
aF0.4
aF0.615
aF0.554
aF0.7
aa(lp38
g12
aF0.5
aF0.581
aF0.383
aF0.536
aF0.49
aF0.459
aF0.462
aF0.462
aF0.431
aF0.453
aF0.526
aF0.623
aF0.435
aF0.566
aF0.509
aF0.456
aF0.491
aF0.596
aF0.538
aF0.367
aF0.483
aF0.462
aF0.391
aF0.538
aF0.51
aa(lp39
g14
aF0.5
aF0.582
aF0.423
aF0.458
aF0.44
aF0.473
aF0.453
aF0.519
aF0.48
aF0.5
aF0.436
aF0.444
aF0.538
aF0.582
aF0.5
aF0.444
aF0.491
aF0.353
aF0.642
aF0.538
aF0.52
aF0.538
aF0.453
aF0.431
aF0.571
aa(lp40
g16
aF0.4
aF0.361
aF0.424
aF0.571
aF0.435
aF0.545
aF0.471
aF0.471
aF0.377
aF0.485
aF0.444
aF0.533
aF0.435
aF0.517
aF0.486
aF0.508
aF0.413
aF0.387
aF0.478
aF0.432
aF0.554
aF0.456
aF0.537
aF0.472
aF0.508
aasS'Accuracy'
p41
(lp42
(lp43
g6
aF0.76
aF0.799
aF0.799
aF0.832
aF0.845
aF0.813
aF0.785
aF0.779
aF0.792
aF0.831
aF0.807
aF0.839
aF0.819
aF0.799
aF0.804
aF0.787
aF0.812
aF0.812
aF0.812
aF0.831
aF0.82
aF0.772
aF0.812
aF0.846
aF0.831
aa(lp44
g8
aF0.82
aF0.792
aF0.819
aF0.799
aF0.858
aF0.867
aF0.826
aF0.792
aF0.785
aF0.811
aF0.833
aF0.839
aF0.805
aF0.839
aF0.818
aF0.86
aF0.799
aF0.819
aF0.819
aF0.851
aF0.813
aF0.846
aF0.785
aF0.846
aF0.845
aa(lp45
g10
aF0.867
aF0.779
aF0.758
aF0.819
aF0.831
aF0.8
aF0.819
aF0.819
aF0.785
aF0.818
aF0.74
aF0.805
aF0.872
aF0.785
aF0.824
aF0.82
aF0.772
aF0.839
aF0.745
aF0.818
aF0.82
aF0.718
aF0.832
aF0.805
aF0.838
aa(lp46
g12
aF0.8
aF0.826
aF0.805
aF0.826
aF0.831
aF0.78
aF0.812
aF0.812
aF0.805
aF0.804
aF0.82
aF0.846
aF0.826
aF0.846
aF0.818
aF0.793
aF0.805
aF0.846
aF0.839
aF0.791
aF0.8
aF0.812
aF0.812
aF0.839
aF0.831
aa(lp47
g14
aF0.813
aF0.846
aF0.799
aF0.826
aF0.811
aF0.807
aF0.805
aF0.826
aF0.826
aF0.824
aF0.793
aF0.832
aF0.839
aF0.846
aF0.811
aF0.8
aF0.805
aF0.779
aF0.872
aF0.838
aF0.84
aF0.839
aF0.805
aF0.805
aF0.838
aa(lp48
g16
aF0.72
aF0.738
aF0.745
aF0.819
aF0.736
aF0.8
aF0.758
aF0.758
aF0.711
aF0.77
aF0.767
aF0.765
aF0.738
aF0.812
aF0.757
aF0.793
aF0.752
aF0.745
aF0.765
aF0.716
aF0.807
aF0.792
aF0.792
aF0.745
aF0.791
aass.